; Function Attrs: mustprogress nofree norecurse nosync nounwind willreturn memory(readwrite, inaccessiblemem: none) uwtable
define internal noundef i32 @_body_enter_leave_callback(ptr readnone captures(none) %0, ptr noundef readonly captures(none) %1, ptr noundef %2) #9 {
  %4 = getelementptr inbounds nuw i8, ptr %1, i64 76
  %5 = load i32, ptr %4, align 4, !tbaa !133
  %.not = icmp eq i32 %5, 2
  br i1 %.not, label %16, label %6

6:                                                ; preds = %3
  %7 = getelementptr inbounds nuw i8, ptr %1, i64 72
  %8 = load i32, ptr %7, align 8, !tbaa !136
  %9 = icmp eq i32 %8, 0
  br i1 %9, label %10, label %16

10:                                               ; preds = %6
  %11 = load i32, ptr %1, align 8, !tbaa !137
  %12 = icmp eq i32 %11, 10
  %13 = select i1 %12, ptr %2, ptr null
  %14 = load ptr, ptr getelementptr inbounds nuw (i8, ptr @darktable, i64 72), align 8, !tbaa !71
  %15 = getelementptr inbounds nuw i8, ptr %14, i64 8
  store ptr %13, ptr %15, align 8, !tbaa !88
  br label %16

16:                                               ; preds = %10, %6, %3
  ret i32 0
}